; Function Attrs: mustprogress uwtable
define internal fastcc noundef zeroext i1 @_ZN14arrow_vendored17double_conversion12_GLOBAL__N_116ConsumeSubStringIPKtEEbPT_S5_PKcb(ptr noundef nonnull captures(none) %0, ptr noundef readnone captures(address) %1, ptr noundef readonly captures(none) %2, i1 noundef zeroext %3) unnamed_addr #0 personality ptr @__gxx_personality_v0 {
  br i1 %3, label %.preheader, label %.preheader13.preheader

.preheader13.preheader:                           ; preds = %4
  %.promoted = load ptr, ptr %0, align 8, !tbaa !38
  br label %.preheader13

.preheader:                                       ; preds = %4, %_ZN14arrow_vendored17double_conversion12_GLOBAL__N_17ToLowerEc.exit
  %.pn.i = phi ptr [ %.011.i, %_ZN14arrow_vendored17double_conversion12_GLOBAL__N_17ToLowerEc.exit ], [ %2, %4 ]
  %.011.i = getelementptr inbounds nuw i8, ptr %.pn.i, i64 1
  %5 = load i8, ptr %.011.i, align 1, !tbaa !15
  %.not.i = icmp eq i8 %5, 0
  %6 = load ptr, ptr %0, align 8, !tbaa !38
  %7 = getelementptr inbounds nuw i8, ptr %6, i64 2
  store ptr %7, ptr %0, align 8, !tbaa !38
  %8 = icmp eq ptr %7, %1
  %or.cond = select i1 %.not.i, i1 true, i1 %8
  br i1 %or.cond, label %_ZN14arrow_vendored17double_conversion12_GLOBAL__N_120ConsumeSubStringImplIPKtPFccEEEbPT_S7_PKcT0_.exit, label %9

9:                                                ; preds = %.preheader
  %10 = load i16, ptr %7, align 2, !tbaa !40
  %11 = trunc i16 %10 to i8
  %12 = load atomic i8, ptr @_ZGVZN14arrow_vendored17double_conversion12_GLOBAL__N_17ToLowerEcE5cType acquire, align 8
  %13 = icmp eq i8 %12, 0
  br i1 %13, label %14, label %_ZN14arrow_vendored17double_conversion12_GLOBAL__N_17ToLowerEc.exit, !prof !21

14:                                               ; preds = %9
  %15 = tail call i32 @__cxa_guard_acquire(ptr nonnull @_ZGVZN14arrow_vendored17double_conversion12_GLOBAL__N_17ToLowerEcE5cType) #8
  %.not.i12 = icmp eq i32 %15, 0
  br i1 %.not.i12, label %_ZN14arrow_vendored17double_conversion12_GLOBAL__N_17ToLowerEc.exit, label %16

16:                                               ; preds = %14
  %17 = invoke noundef nonnull align 8 dereferenceable(8) ptr @_ZNSt6locale7classicEv()
          to label %18 unwind label %21

18:                                               ; preds = %16
  %19 = invoke noundef nonnull align 8 dereferenceable(570) ptr @_ZSt9use_facetISt5ctypeIcEERKT_RKSt6locale(ptr noundef nonnull align 8 dereferenceable(8) %17)
          to label %20 unwind label %21

20:                                               ; preds = %18
  store ptr %19, ptr @_ZZN14arrow_vendored17double_conversion12_GLOBAL__N_17ToLowerEcE5cType, align 8, !tbaa !22
  tail call void @__cxa_guard_release(ptr nonnull @_ZGVZN14arrow_vendored17double_conversion12_GLOBAL__N_17ToLowerEcE5cType) #8
  br label %_ZN14arrow_vendored17double_conversion12_GLOBAL__N_17ToLowerEc.exit

21:                                               ; preds = %18, %16
  %22 = landingpad { ptr, i32 }
          cleanup
  tail call void @__cxa_guard_abort(ptr nonnull @_ZGVZN14arrow_vendored17double_conversion12_GLOBAL__N_17ToLowerEcE5cType) #8
  resume { ptr, i32 } %22

_ZN14arrow_vendored17double_conversion12_GLOBAL__N_17ToLowerEc.exit: ; preds = %9, %14, %20
  %23 = load ptr, ptr @_ZZN14arrow_vendored17double_conversion12_GLOBAL__N_17ToLowerEcE5cType, align 8, !tbaa !22
  %24 = load ptr, ptr %23, align 8, !tbaa !24
  %25 = getelementptr inbounds nuw i8, ptr %24, i64 32
  %26 = load ptr, ptr %25, align 8
  %27 = tail call noundef signext i8 %26(ptr noundef nonnull align 8 dereferenceable(570) %23, i8 noundef signext %11)
  %28 = load i8, ptr %.011.i, align 1, !tbaa !15
  %.not13.i = icmp eq i8 %27, %28
  br i1 %.not13.i, label %.preheader, label %_ZN14arrow_vendored17double_conversion12_GLOBAL__N_120ConsumeSubStringImplIPKtPFccEEEbPT_S7_PKcT0_.exit, !llvm.loop !63

.preheader13:                                     ; preds = %.preheader13.preheader, %33
  %29 = phi ptr [ %31, %33 ], [ %.promoted, %.preheader13.preheader ]
  %.pn.i7 = phi ptr [ %.011.i8, %33 ], [ %2, %.preheader13.preheader ]
  %.011.i8 = getelementptr inbounds nuw i8, ptr %.pn.i7, i64 1
  %30 = load i8, ptr %.011.i8, align 1, !tbaa !15
  %.not.i9 = icmp eq i8 %30, 0
  %31 = getelementptr inbounds nuw i8, ptr %29, i64 2
  store ptr %31, ptr %0, align 8, !tbaa !38
  %32 = icmp eq ptr %31, %1
  %or.cond19 = select i1 %.not.i9, i1 true, i1 %32
  br i1 %or.cond19, label %_ZN14arrow_vendored17double_conversion12_GLOBAL__N_120ConsumeSubStringImplIPKtPFccEEEbPT_S7_PKcT0_.exit, label %33

33:                                               ; preds = %.preheader13
  %34 = load i16, ptr %31, align 2, !tbaa !40
  %35 = trunc i16 %34 to i8
  %36 = load i8, ptr %.011.i8, align 1, !tbaa !15
  %.not13.i10 = icmp eq i8 %36, %35
  br i1 %.not13.i10, label %.preheader13, label %_ZN14arrow_vendored17double_conversion12_GLOBAL__N_120ConsumeSubStringImplIPKtPFccEEEbPT_S7_PKcT0_.exit, !llvm.loop !63

_ZN14arrow_vendored17double_conversion12_GLOBAL__N_120ConsumeSubStringImplIPKtPFccEEEbPT_S7_PKcT0_.exit: ; preds = %33, %.preheader13, %_ZN14arrow_vendored17double_conversion12_GLOBAL__N_17ToLowerEc.exit, %.preheader
  %.0 = phi i1 [ %.not.i, %.preheader ], [ %.not.i, %_ZN14arrow_vendored17double_conversion12_GLOBAL__N_17ToLowerEc.exit ], [ %.not.i9, %.preheader13 ], [ %.not.i9, %33 ]
  ret i1 %.0
}